target datalayout = "e-m:e-p270:32:32-p271:32:32-p272:64:64-i64:64-i128:128-f80:128-n8:16:32:64-S128"
target triple = "x86_64-pc-linux-gnu"

%struct.pmix_pointer_array_t = type { %struct.pmix_object_t, i32, i32, i32, i32, i32, ptr, ptr }
%struct.pmix_object_t = type { %union.pthread_mutex_t, ptr, i32, %struct.pmix_tma }
%union.pthread_mutex_t = type { %struct.__pthread_mutex_s }
%struct.__pthread_mutex_s = type { i32, i32, i32, i32, i32, i16, i16, %struct.__pthread_internal_list }
%struct.__pthread_internal_list = type { ptr, ptr }
%struct.pmix_tma = type { ptr, ptr, ptr, ptr, ptr, ptr, ptr, ptr }
%struct.pmix_mca_base_framework_t = type { ptr, ptr, ptr, ptr, ptr, ptr, i32, i32, ptr, ptr, i32, i32, %struct.pmix_list_t, %struct.pmix_list_t }
%struct.pmix_list_t = type { %struct.pmix_object_t, %struct.pmix_list_item_t, i64 }
%struct.pmix_list_item_t = type { %struct.pmix_object_t, ptr, ptr, i32 }
%struct.pmix_output_desc_t = type { i8, i8, i32, i8, i32, ptr, ptr, i32, ptr, i32, i8, i8, i8, i8, ptr, i32, i32 }
%struct.pmix_bfrop_type_info_t = type { %struct.pmix_object_t, i16, ptr, ptr, ptr, ptr, ptr }
%struct.pmix_data_array = type { i16, i64, ptr }

@pmix_bfrops_base_framework = external global %struct.pmix_mca_base_framework_t, align 8
@pmix_output_info = external global [0 x %struct.pmix_output_desc_t], align 8
@.str.27 = private unnamed_addr constant [36 x i8] c"pmix20_bfrop_unpack: %d data arrays\00", align 1

; Function Attrs: inlinehint nounwind uwtable
define internal ptr @pmix_pointer_array_get_item(ptr noundef %0, i32 noundef %1) #3 {
  %3 = alloca ptr, align 8
  %4 = alloca ptr, align 8
  %5 = alloca i32, align 4
  %6 = alloca ptr, align 8
  %7 = alloca i32, align 4
  store ptr %0, ptr %4, align 8, !tbaa !13
  store i32 %1, ptr %5, align 4, !tbaa !11
  call void @llvm.lifetime.start.p0(i64 8, ptr %6) #11
  %8 = load i32, ptr %5, align 4, !tbaa !11
  %9 = icmp sgt i32 0, %8
  br i1 %9, label %16, label %10

10:                                               ; preds = %2
  %11 = load ptr, ptr %4, align 8, !tbaa !13
  %12 = getelementptr inbounds nuw %struct.pmix_pointer_array_t, ptr %11, i32 0, i32 3
  %13 = load i32, ptr %12, align 8, !tbaa !33
  %14 = load i32, ptr %5, align 4, !tbaa !11
  %15 = icmp sle i32 %13, %14
  br label %16

16:                                               ; preds = %10, %2
  %17 = phi i1 [ true, %2 ], [ %15, %10 ]
  %18 = xor i1 %17, true
  %19 = xor i1 %18, true
  %20 = zext i1 %19 to i32
  %21 = sext i32 %20 to i64
  %22 = call i64 @llvm.expect.i64(i64 %21, i64 0)
  %23 = icmp ne i64 %22, 0
  br i1 %23, label %24, label %25

24:                                               ; preds = %16
  store ptr null, ptr %3, align 8
  store i32 1, ptr %7, align 4
  br label %34

25:                                               ; preds = %16
  %26 = load ptr, ptr %4, align 8, !tbaa !13
  %27 = getelementptr inbounds nuw %struct.pmix_pointer_array_t, ptr %26, i32 0, i32 7
  %28 = load ptr, ptr %27, align 8, !tbaa !36
  %29 = load i32, ptr %5, align 4, !tbaa !11
  %30 = sext i32 %29 to i64
  %31 = getelementptr inbounds ptr, ptr %28, i64 %30
  %32 = load ptr, ptr %31, align 8, !tbaa !3
  store ptr %32, ptr %6, align 8, !tbaa !3
  %33 = load ptr, ptr %6, align 8, !tbaa !3
  store ptr %33, ptr %3, align 8
  store i32 1, ptr %7, align 4
  br label %34

34:                                               ; preds = %25, %24
  call void @llvm.lifetime.end.p0(i64 8, ptr %6) #11
  %35 = load ptr, ptr %3, align 8
  ret ptr %35
}

; Function Attrs: nounwind uwtable
define i32 @pmix20_bfrop_unpack_datatype(ptr noundef %0, ptr noundef %1, ptr noundef %2, ptr noundef %3, i16 noundef zeroext %4) #0 {
  %6 = alloca ptr, align 8
  %7 = alloca ptr, align 8
  %8 = alloca ptr, align 8
  %9 = alloca ptr, align 8
  %10 = alloca i16, align 2
  %11 = alloca i32, align 4
  %12 = alloca ptr, align 8
  store ptr %0, ptr %6, align 8, !tbaa !13
  store ptr %1, ptr %7, align 8, !tbaa !3
  store ptr %2, ptr %8, align 8, !tbaa !3
  store ptr %3, ptr %9, align 8, !tbaa !7
  store i16 %4, ptr %10, align 2, !tbaa !9
  call void @llvm.lifetime.start.p0(i64 4, ptr %11) #11
  br label %13

13:                                               ; preds = %5
  call void @llvm.lifetime.start.p0(i64 8, ptr %12) #11
  %14 = load ptr, ptr %6, align 8, !tbaa !13
  %15 = call ptr @pmix_pointer_array_get_item(ptr noundef %14, i32 noundef 8)
  store ptr %15, ptr %12, align 8, !tbaa !3
  %16 = load ptr, ptr %12, align 8, !tbaa !3
  %17 = icmp eq ptr null, %16
  br i1 %17, label %18, label %19

18:                                               ; preds = %13
  store i32 -16, ptr %11, align 4, !tbaa !11
  br label %28

19:                                               ; preds = %13
  %20 = load ptr, ptr %12, align 8, !tbaa !3
  %21 = getelementptr inbounds nuw %struct.pmix_bfrop_type_info_t, ptr %20, i32 0, i32 4
  %22 = load ptr, ptr %21, align 8, !tbaa !31
  %23 = load ptr, ptr %6, align 8, !tbaa !13
  %24 = load ptr, ptr %7, align 8, !tbaa !3
  %25 = load ptr, ptr %8, align 8, !tbaa !3
  %26 = load ptr, ptr %9, align 8, !tbaa !7
  %27 = call i32 %22(ptr noundef %23, ptr noundef %24, ptr noundef %25, ptr noundef %26, i16 noundef zeroext 8)
  store i32 %27, ptr %11, align 4, !tbaa !11
  br label %28

28:                                               ; preds = %19, %18
  call void @llvm.lifetime.end.p0(i64 8, ptr %12) #11
  br label %29

29:                                               ; preds = %28
  br label %30

30:                                               ; preds = %29
  %31 = load i32, ptr %11, align 4, !tbaa !11
  call void @llvm.lifetime.end.p0(i64 4, ptr %11) #11
  ret i32 %31
}

; Function Attrs: nounwind uwtable
define i32 @pmix20_bfrop_unpack_darray(ptr noundef %0, ptr noundef %1, ptr noundef %2, ptr noundef %3, i16 noundef zeroext %4) #0 {
  %6 = alloca i32, align 4
  %7 = alloca ptr, align 8
  %8 = alloca ptr, align 8
  %9 = alloca ptr, align 8
  %10 = alloca ptr, align 8
  %11 = alloca i16, align 2
  %12 = alloca ptr, align 8
  %13 = alloca i32, align 4
  %14 = alloca i32, align 4
  %15 = alloca i32, align 4
  %16 = alloca i32, align 4
  %17 = alloca i64, align 8
  %18 = alloca i32, align 4
  store ptr %0, ptr %7, align 8, !tbaa !13
  store ptr %1, ptr %8, align 8, !tbaa !3
  store ptr %2, ptr %9, align 8, !tbaa !3
  store ptr %3, ptr %10, align 8, !tbaa !7
  store i16 %4, ptr %11, align 2, !tbaa !9
  call void @llvm.lifetime.start.p0(i64 8, ptr %12) #11
  call void @llvm.lifetime.start.p0(i64 4, ptr %13) #11
  call void @llvm.lifetime.start.p0(i64 4, ptr %14) #11
  call void @llvm.lifetime.start.p0(i64 4, ptr %15) #11
  call void @llvm.lifetime.start.p0(i64 4, ptr %16) #11
  call void @llvm.lifetime.start.p0(i64 8, ptr %17) #11
  %19 = load i32, ptr getelementptr inbounds nuw (%struct.pmix_mca_base_framework_t, ptr @pmix_bfrops_base_framework, i32 0, i32 11), align 4, !tbaa !15
  %20 = icmp sge i32 %19, 0
  br i1 %20, label %21, label %35

21:                                               ; preds = %5
  %22 = load i32, ptr getelementptr inbounds nuw (%struct.pmix_mca_base_framework_t, ptr @pmix_bfrops_base_framework, i32 0, i32 11), align 4, !tbaa !15
  %23 = icmp slt i32 %22, 64
  br i1 %23, label %24, label %35

24:                                               ; preds = %21
  %25 = load i32, ptr getelementptr inbounds nuw (%struct.pmix_mca_base_framework_t, ptr @pmix_bfrops_base_framework, i32 0, i32 11), align 4, !tbaa !15
  %26 = sext i32 %25 to i64
  %27 = getelementptr inbounds [0 x %struct.pmix_output_desc_t], ptr @pmix_output_info, i64 0, i64 %26
  %28 = getelementptr inbounds nuw %struct.pmix_output_desc_t, ptr %27, i32 0, i32 2
  %29 = load i32, ptr %28, align 4, !tbaa !26
  %30 = icmp sge i32 %29, 20
  br i1 %30, label %31, label %35

31:                                               ; preds = %24
  %32 = load i32, ptr getelementptr inbounds nuw (%struct.pmix_mca_base_framework_t, ptr @pmix_bfrops_base_framework, i32 0, i32 11), align 4, !tbaa !15
  %33 = load ptr, ptr %10, align 8, !tbaa !7
  %34 = load i32, ptr %33, align 4, !tbaa !11
  call void (i32, ptr, ...) @pmix_output(i32 noundef %32, ptr noundef @.str.27, i32 noundef %34)
  br label %35

35:                                               ; preds = %31, %24, %21, %5
  %36 = load ptr, ptr %9, align 8, !tbaa !3
  store ptr %36, ptr %12, align 8, !tbaa !169
  %37 = load ptr, ptr %10, align 8, !tbaa !7
  %38 = load i32, ptr %37, align 4, !tbaa !11
  store i32 %38, ptr %14, align 4, !tbaa !11
  store i32 0, ptr %13, align 4, !tbaa !11
  br label %39

39:                                               ; preds = %161, %35
  %40 = load i32, ptr %13, align 4, !tbaa !11
  %41 = load i32, ptr %14, align 4, !tbaa !11
  %42 = icmp slt i32 %40, %41
  br i1 %42, label %43, label %164

43:                                               ; preds = %39
  %44 = load ptr, ptr %12, align 8, !tbaa !169
  %45 = load i32, ptr %13, align 4, !tbaa !11
  %46 = sext i32 %45 to i64
  %47 = getelementptr inbounds %struct.pmix_data_array, ptr %44, i64 %46
  call void @llvm.memset.p0.i64(ptr align 8 %47, i8 0, i64 24, i1 false)
  store i32 1, ptr %15, align 4, !tbaa !11
  %48 = load ptr, ptr %7, align 8, !tbaa !13
  %49 = load ptr, ptr %8, align 8, !tbaa !3
  %50 = load ptr, ptr %12, align 8, !tbaa !169
  %51 = load i32, ptr %13, align 4, !tbaa !11
  %52 = sext i32 %51 to i64
  %53 = getelementptr inbounds %struct.pmix_data_array, ptr %50, i64 %52
  %54 = getelementptr inbounds nuw %struct.pmix_data_array, ptr %53, i32 0, i32 0
  %55 = call i32 @pmix20_bfrop_unpack_datatype(ptr noundef %48, ptr noundef %49, ptr noundef %54, ptr noundef %15, i16 noundef zeroext 36)
  store i32 %55, ptr %16, align 4, !tbaa !11
  %56 = icmp ne i32 0, %55
  br i1 %56, label %57, label %59

57:                                               ; preds = %43
  %58 = load i32, ptr %16, align 4, !tbaa !11
  store i32 %58, ptr %6, align 4
  store i32 1, ptr %18, align 4
  br label %165

59:                                               ; preds = %43
  store i32 1, ptr %15, align 4, !tbaa !11
  %60 = load ptr, ptr %7, align 8, !tbaa !13
  %61 = load ptr, ptr %8, align 8, !tbaa !3
  %62 = load ptr, ptr %12, align 8, !tbaa !169
  %63 = load i32, ptr %13, align 4, !tbaa !11
  %64 = sext i32 %63 to i64
  %65 = getelementptr inbounds %struct.pmix_data_array, ptr %62, i64 %64
  %66 = getelementptr inbounds nuw %struct.pmix_data_array, ptr %65, i32 0, i32 1
  %67 = call i32 @pmix20_bfrop_unpack_sizet(ptr noundef %60, ptr noundef %61, ptr noundef %66, ptr noundef %15, i16 noundef zeroext 4)
  store i32 %67, ptr %16, align 4, !tbaa !11
  %68 = icmp ne i32 0, %67
  br i1 %68, label %69, label %71

69:                                               ; preds = %59
  %70 = load i32, ptr %16, align 4, !tbaa !11
  store i32 %70, ptr %6, align 4
  store i32 1, ptr %18, align 4
  br label %165

71:                                               ; preds = %59
  %72 = load ptr, ptr %12, align 8, !tbaa !169
  %73 = load i32, ptr %13, align 4, !tbaa !11
  %74 = sext i32 %73 to i64
  %75 = getelementptr inbounds %struct.pmix_data_array, ptr %72, i64 %74
  %76 = getelementptr inbounds nuw %struct.pmix_data_array, ptr %75, i32 0, i32 1
  %77 = load i64, ptr %76, align 8, !tbaa !103
  %78 = icmp eq i64 0, %77
  br i1 %78, label %88, label %79

79:                                               ; preds = %71
  %80 = load ptr, ptr %12, align 8, !tbaa !169
  %81 = load i32, ptr %13, align 4, !tbaa !11
  %82 = sext i32 %81 to i64
  %83 = getelementptr inbounds %struct.pmix_data_array, ptr %80, i64 %82
  %84 = getelementptr inbounds nuw %struct.pmix_data_array, ptr %83, i32 0, i32 0
  %85 = load i16, ptr %84, align 8, !tbaa !101
  %86 = zext i16 %85 to i32
  %87 = icmp eq i32 0, %86
  br i1 %87, label %88, label %89

88:                                               ; preds = %79, %71
  br label %161

89:                                               ; preds = %79
  %90 = load ptr, ptr %12, align 8, !tbaa !169
  %91 = load i32, ptr %13, align 4, !tbaa !11
  %92 = sext i32 %91 to i64
  %93 = getelementptr inbounds %struct.pmix_data_array, ptr %90, i64 %92
  %94 = getelementptr inbounds nuw %struct.pmix_data_array, ptr %93, i32 0, i32 1
  %95 = load i64, ptr %94, align 8, !tbaa !103
  %96 = trunc i64 %95 to i32
  store i32 %96, ptr %15, align 4, !tbaa !11
  %97 = load ptr, ptr %12, align 8, !tbaa !169
  %98 = load i32, ptr %13, align 4, !tbaa !11
  %99 = sext i32 %98 to i64
  %100 = getelementptr inbounds %struct.pmix_data_array, ptr %97, i64 %99
  %101 = getelementptr inbounds nuw %struct.pmix_data_array, ptr %100, i32 0, i32 0
  %102 = load i16, ptr %101, align 8, !tbaa !101
  %103 = zext i16 %102 to i32
  switch i32 %103, label %127 [
    i32 1, label %104
    i32 2, label %105
    i32 7, label %105
    i32 12, label %105
    i32 8, label %106
    i32 13, label %106
    i32 9, label %107
    i32 14, label %107
    i32 10, label %108
    i32 15, label %108
    i32 3, label %109
    i32 4, label %110
    i32 5, label %111
    i32 6, label %112
    i32 11, label %112
    i32 16, label %113
    i32 17, label %114
    i32 18, label %115
    i32 19, label %116
    i32 20, label %117
    i32 24, label %118
    i32 22, label %119
    i32 27, label %120
    i32 42, label %120
    i32 30, label %121
    i32 32, label %122
    i32 33, label %123
    i32 37, label %124
    i32 38, label %125
    i32 41, label %126
  ]

104:                                              ; preds = %89
  store i64 1, ptr %17, align 8, !tbaa !54
  br label %128

105:                                              ; preds = %89, %89, %89
  store i64 1, ptr %17, align 8, !tbaa !54
  br label %128

106:                                              ; preds = %89, %89
  store i64 2, ptr %17, align 8, !tbaa !54
  br label %128

107:                                              ; preds = %89, %89
  store i64 4, ptr %17, align 8, !tbaa !54
  br label %128

108:                                              ; preds = %89, %89
  store i64 8, ptr %17, align 8, !tbaa !54
  br label %128

109:                                              ; preds = %89
  store i64 8, ptr %17, align 8, !tbaa !54
  br label %128

110:                                              ; preds = %89
  store i64 8, ptr %17, align 8, !tbaa !54
  br label %128

111:                                              ; preds = %89
  store i64 4, ptr %17, align 8, !tbaa !54
  br label %128

112:                                              ; preds = %89, %89
  store i64 4, ptr %17, align 8, !tbaa !54
  br label %128

113:                                              ; preds = %89
  store i64 4, ptr %17, align 8, !tbaa !54
  br label %128

114:                                              ; preds = %89
  store i64 8, ptr %17, align 8, !tbaa !54
  br label %128

115:                                              ; preds = %89
  store i64 16, ptr %17, align 8, !tbaa !54
  br label %128

116:                                              ; preds = %89
  store i64 8, ptr %17, align 8, !tbaa !54
  br label %128

117:                                              ; preds = %89
  store i64 4, ptr %17, align 8, !tbaa !54
  br label %128

118:                                              ; preds = %89
  store i64 552, ptr %17, align 8, !tbaa !54
  br label %128

119:                                              ; preds = %89
  store i64 260, ptr %17, align 8, !tbaa !54
  br label %128

120:                                              ; preds = %89, %89
  store i64 16, ptr %17, align 8, !tbaa !54
  br label %128

121:                                              ; preds = %89
  store i64 1, ptr %17, align 8, !tbaa !54
  br label %128

122:                                              ; preds = %89
  store i64 1, ptr %17, align 8, !tbaa !54
  br label %128

123:                                              ; preds = %89
  store i64 1, ptr %17, align 8, !tbaa !54
  br label %128

124:                                              ; preds = %89
  store i64 1, ptr %17, align 8, !tbaa !54
  br label %128

125:                                              ; preds = %89
  store i64 296, ptr %17, align 8, !tbaa !54
  br label %128

126:                                              ; preds = %89
  store i64 24, ptr %17, align 8, !tbaa !54
  br label %128

127:                                              ; preds = %89
  store i32 -47, ptr %6, align 4
  store i32 1, ptr %18, align 4
  br label %165

128:                                              ; preds = %126, %125, %124, %123, %122, %121, %120, %119, %118, %117, %116, %115, %114, %113, %112, %111, %110, %109, %108, %107, %106, %105, %104
  %129 = load i32, ptr %15, align 4, !tbaa !11
  %130 = sext i32 %129 to i64
  %131 = load i64, ptr %17, align 8, !tbaa !54
  %132 = mul i64 %130, %131
  %133 = call noalias ptr @malloc(i64 noundef %132) #14
  %134 = load ptr, ptr %12, align 8, !tbaa !169
  %135 = load i32, ptr %13, align 4, !tbaa !11
  %136 = sext i32 %135 to i64
  %137 = getelementptr inbounds %struct.pmix_data_array, ptr %134, i64 %136
  %138 = getelementptr inbounds nuw %struct.pmix_data_array, ptr %137, i32 0, i32 2
  store ptr %133, ptr %138, align 8, !tbaa !171
  %139 = icmp eq ptr null, %133
  br i1 %139, label %140, label %141

140:                                              ; preds = %128
  store i32 -32, ptr %6, align 4
  store i32 1, ptr %18, align 4
  br label %165

141:                                              ; preds = %128
  %142 = load ptr, ptr %7, align 8, !tbaa !13
  %143 = load ptr, ptr %8, align 8, !tbaa !3
  %144 = load ptr, ptr %12, align 8, !tbaa !169
  %145 = load i32, ptr %13, align 4, !tbaa !11
  %146 = sext i32 %145 to i64
  %147 = getelementptr inbounds %struct.pmix_data_array, ptr %144, i64 %146
  %148 = getelementptr inbounds nuw %struct.pmix_data_array, ptr %147, i32 0, i32 2
  %149 = load ptr, ptr %148, align 8, !tbaa !171
  %150 = load ptr, ptr %12, align 8, !tbaa !169
  %151 = load i32, ptr %13, align 4, !tbaa !11
  %152 = sext i32 %151 to i64
  %153 = getelementptr inbounds %struct.pmix_data_array, ptr %150, i64 %152
  %154 = getelementptr inbounds nuw %struct.pmix_data_array, ptr %153, i32 0, i32 0
  %155 = load i16, ptr %154, align 8, !tbaa !101
  %156 = call i32 @pmix20_bfrop_unpack_buffer(ptr noundef %142, ptr noundef %143, ptr noundef %149, ptr noundef %15, i16 noundef zeroext %155)
  store i32 %156, ptr %16, align 4, !tbaa !11
  %157 = icmp ne i32 0, %156
  br i1 %157, label %158, label %160

158:                                              ; preds = %141
  %159 = load i32, ptr %16, align 4, !tbaa !11
  store i32 %159, ptr %6, align 4
  store i32 1, ptr %18, align 4
  br label %165

160:                                              ; preds = %141
  br label %161

161:                                              ; preds = %160, %88
  %162 = load i32, ptr %13, align 4, !tbaa !11
  %163 = add nsw i32 %162, 1
  store i32 %163, ptr %13, align 4, !tbaa !11
  br label %39, !llvm.loop !172

164:                                              ; preds = %39
  store i32 0, ptr %6, align 4
  store i32 1, ptr %18, align 4
  br label %165

165:                                              ; preds = %164, %158, %140, %127, %69, %57
  call void @llvm.lifetime.end.p0(i64 8, ptr %17) #11
  call void @llvm.lifetime.end.p0(i64 4, ptr %16) #11
  call void @llvm.lifetime.end.p0(i64 4, ptr %15) #11
  call void @llvm.lifetime.end.p0(i64 4, ptr %14) #11
  call void @llvm.lifetime.end.p0(i64 4, ptr %13) #11
  call void @llvm.lifetime.end.p0(i64 8, ptr %12) #11
  %166 = load i32, ptr %6, align 4
  ret i32 %166
}