; Function Attrs: nounwind uwtable
define i32 @pmix20_bfrop_unpack_darray(ptr noundef %0, ptr noundef %1, ptr noundef %2, ptr noundef readonly captures(none) %3, i16 noundef zeroext %4) local_unnamed_addr #0 {
  %6 = alloca i32, align 4
  call void @llvm.lifetime.start.p0(i64 4, ptr nonnull %6) #10
  %7 = load i32, ptr getelementptr inbounds nuw (i8, ptr @pmix_bfrops_base_framework, i64 76), align 4, !tbaa !7
  %or.cond = icmp ult i32 %7, 64
  br i1 %or.cond, label %8, label %15

8:                                                ; preds = %5
  %9 = zext nneg i32 %7 to i64
  %10 = getelementptr inbounds nuw [0 x %struct.pmix_output_desc_t], ptr @pmix_output_info, i64 0, i64 %9, i32 2
  %11 = load i32, ptr %10, align 4, !tbaa !19
  %12 = icmp sgt i32 %11, 19
  br i1 %12, label %13, label %15

13:                                               ; preds = %8
  %14 = load i32, ptr %3, align 4, !tbaa !3
  tail call void (i32, ptr, ...) @pmix_output(i32 noundef %7, ptr noundef nonnull @.str.27, i32 noundef %14) #10
  br label %15

15:                                               ; preds = %13, %8, %5
  %16 = load i32, ptr %3, align 4, !tbaa !3
  %17 = getelementptr inbounds nuw i8, ptr %0, i64 152
  %18 = icmp sgt i32 %16, 0
  br i1 %18, label %.lr.ph, label %pmix20_bfrop_unpack_datatype.exit.thread

.lr.ph:                                           ; preds = %15
  %19 = getelementptr inbounds nuw i8, ptr %0, i64 128
  %wide.trip.count = zext nneg i32 %16 to i64
  br label %20

20:                                               ; preds = %.lr.ph, %50
  %indvars.iv = phi i64 [ 0, %.lr.ph ], [ %indvars.iv.next, %50 ]
  %21 = getelementptr inbounds nuw %struct.pmix_data_array, ptr %2, i64 %indvars.iv
  call void @llvm.memset.p0.i64(ptr noundef nonnull align 8 dereferenceable(24) %21, i8 0, i64 24, i1 false)
  store i32 1, ptr %6, align 4, !tbaa !3
  %22 = load i32, ptr %19, align 8, !tbaa !26
  %.not.i.i = icmp sgt i32 %22, 8
  br i1 %.not.i.i, label %pmix_pointer_array_get_item.exit.i, label %pmix20_bfrop_unpack_datatype.exit.thread, !prof !29

pmix_pointer_array_get_item.exit.i:               ; preds = %20
  %23 = load ptr, ptr %17, align 8, !tbaa !30
  %24 = getelementptr inbounds nuw i8, ptr %23, i64 64
  %25 = load ptr, ptr %24, align 8, !tbaa !31
  %26 = icmp eq ptr %25, null
  br i1 %26, label %pmix20_bfrop_unpack_datatype.exit.thread, label %pmix20_bfrop_unpack_datatype.exit

pmix20_bfrop_unpack_datatype.exit:                ; preds = %pmix_pointer_array_get_item.exit.i
  %27 = getelementptr inbounds nuw i8, ptr %25, i64 144
  %28 = load ptr, ptr %27, align 8, !tbaa !32
  %29 = call i32 %28(ptr noundef nonnull %0, ptr noundef %1, ptr noundef nonnull %21, ptr noundef nonnull %6, i16 noundef zeroext 8) #10
  %.not = icmp eq i32 %29, 0
  br i1 %.not, label %30, label %pmix20_bfrop_unpack_datatype.exit.thread

30:                                               ; preds = %pmix20_bfrop_unpack_datatype.exit
  store i32 1, ptr %6, align 4, !tbaa !3
  %31 = getelementptr inbounds nuw i8, ptr %21, i64 8
  %32 = call i32 @pmix20_bfrop_unpack_sizet(ptr noundef nonnull %0, ptr noundef %1, ptr noundef nonnull %31, ptr noundef nonnull %6, i16 zeroext poison)
  %.not45 = icmp eq i32 %32, 0
  br i1 %.not45, label %33, label %pmix20_bfrop_unpack_datatype.exit.thread

33:                                               ; preds = %30
  %34 = load i64, ptr %31, align 8, !tbaa !74
  %35 = icmp eq i64 %34, 0
  br i1 %35, label %50, label %36

36:                                               ; preds = %33
  %37 = load i16, ptr %21, align 8, !tbaa !72
  %38 = icmp eq i16 %37, 0
  br i1 %38, label %50, label %39

39:                                               ; preds = %36
  %40 = trunc i64 %34 to i32
  store i32 %40, ptr %6, align 4, !tbaa !3
  %switch.tableidx = add i16 %37, -1
  %41 = icmp ult i16 %37, 43
  br i1 %41, label %switch.hole_check, label %pmix20_bfrop_unpack_datatype.exit.thread

switch.hole_check:                                ; preds = %39
  %switch.maskindex = zext nneg i16 %switch.tableidx to i64
  %switch.shifted = lshr i64 3511751278591, %switch.maskindex
  %switch.lobit = trunc i64 %switch.shifted to i1
  br i1 %switch.lobit, label %switch.lookup, label %pmix20_bfrop_unpack_datatype.exit.thread

switch.lookup:                                    ; preds = %switch.hole_check
  %42 = sext i16 %switch.tableidx to i64
  %switch.gep = getelementptr inbounds [42 x i64], ptr @switch.table.pmix20_bfrop_unpack_darray, i64 0, i64 %42
  %switch.load = load i64, ptr %switch.gep, align 8
  %sext = shl i64 %34, 32
  %43 = ashr exact i64 %sext, 32
  %44 = mul nsw i64 %switch.load, %43
  %45 = call noalias ptr @malloc(i64 noundef %44) #12
  %46 = getelementptr inbounds nuw i8, ptr %21, i64 16
  store ptr %45, ptr %46, align 8, !tbaa !118
  %47 = icmp eq ptr %45, null
  br i1 %47, label %pmix20_bfrop_unpack_datatype.exit.thread, label %48

48:                                               ; preds = %switch.lookup
  %49 = call i32 @pmix20_bfrop_unpack_buffer(ptr noundef nonnull %0, ptr noundef %1, ptr noundef nonnull %45, ptr noundef nonnull %6, i16 noundef zeroext %37)
  %.not46 = icmp eq i32 %49, 0
  br i1 %.not46, label %50, label %pmix20_bfrop_unpack_datatype.exit.thread

50:                                               ; preds = %48, %33, %36
  %indvars.iv.next = add nuw nsw i64 %indvars.iv, 1
  %exitcond.not = icmp eq i64 %indvars.iv.next, %wide.trip.count
  br i1 %exitcond.not, label %pmix20_bfrop_unpack_datatype.exit.thread, label %20, !llvm.loop !119

pmix20_bfrop_unpack_datatype.exit.thread:         ; preds = %pmix20_bfrop_unpack_datatype.exit, %30, %switch.lookup, %48, %50, %pmix_pointer_array_get_item.exit.i, %20, %39, %switch.hole_check, %15
  %.037 = phi i32 [ 0, %15 ], [ -47, %switch.hole_check ], [ -16, %20 ], [ -16, %pmix_pointer_array_get_item.exit.i ], [ 0, %50 ], [ %49, %48 ], [ -32, %switch.lookup ], [ -47, %39 ], [ %32, %30 ], [ %29, %pmix20_bfrop_unpack_datatype.exit ]
  call void @llvm.lifetime.end.p0(i64 4, ptr nonnull %6) #10
  ret i32 %.037
}